target datalayout = "e-m:e-p270:32:32-p271:32:32-p272:64:64-i64:64-i128:128-f80:128-n8:16:32:64-S128"
target triple = "x86_64-pc-linux-gnu"

%struct.opj_codec_private = type { %union.anon, ptr, %struct.opj_event_mgr, i32, ptr, ptr, ptr, ptr }
%union.anon = type { %struct.opj_decompression }
%struct.opj_decompression = type { ptr, ptr, ptr, ptr, ptr, ptr, ptr, ptr, ptr, ptr, ptr, ptr }
%struct.opj_event_mgr = type { ptr, ptr, ptr, ptr, ptr, ptr }

; Function Attrs: nounwind uwtable
define hidden i32 @opj_set_warning_handler(ptr noundef %0, ptr noundef %1, ptr noundef %2) #0 {
  %4 = alloca i32, align 4
  %5 = alloca ptr, align 8
  %6 = alloca ptr, align 8
  %7 = alloca ptr, align 8
  %8 = alloca ptr, align 8
  %9 = alloca i32, align 4
  store ptr %0, ptr %5, align 8, !tbaa !3
  store ptr %1, ptr %6, align 8, !tbaa !8
  store ptr %2, ptr %7, align 8, !tbaa !8
  call void @llvm.lifetime.start.p0(i64 8, ptr %8) #5
  %10 = load ptr, ptr %5, align 8, !tbaa !3
  store ptr %10, ptr %8, align 8, !tbaa !9
  %11 = load ptr, ptr %8, align 8, !tbaa !9
  %12 = icmp ne ptr %11, null
  br i1 %12, label %14, label %13

13:                                               ; preds = %3
  store i32 0, ptr %4, align 4
  store i32 1, ptr %9, align 4
  br label %23

14:                                               ; preds = %3
  %15 = load ptr, ptr %6, align 8, !tbaa !8
  %16 = load ptr, ptr %8, align 8, !tbaa !9
  %17 = getelementptr inbounds nuw %struct.opj_codec_private, ptr %16, i32 0, i32 2
  %18 = getelementptr inbounds nuw %struct.opj_event_mgr, ptr %17, i32 0, i32 4
  store ptr %15, ptr %18, align 8, !tbaa !16
  %19 = load ptr, ptr %7, align 8, !tbaa !8
  %20 = load ptr, ptr %8, align 8, !tbaa !9
  %21 = getelementptr inbounds nuw %struct.opj_codec_private, ptr %20, i32 0, i32 2
  %22 = getelementptr inbounds nuw %struct.opj_event_mgr, ptr %21, i32 0, i32 1
  store ptr %19, ptr %22, align 8, !tbaa !17
  store i32 1, ptr %4, align 4
  store i32 1, ptr %9, align 4
  br label %23

23:                                               ; preds = %14, %13
  call void @llvm.lifetime.end.p0(i64 8, ptr %8) #5
  %24 = load i32, ptr %4, align 4
  ret i32 %24
}